target datalayout = "e-m:e-p270:32:32-p271:32:32-p272:64:64-i64:64-i128:128-f80:128-n8:16:32:64-S128"
target triple = "x86_64-pc-linux-gnu"

%struct.OnigMatchParamStruct = type { i32, i64, i64, ptr, ptr, ptr, i32, ptr, i32 }
%struct.OnigCalloutArgsStruct = type { i32, i32, i32, ptr, ptr, ptr, ptr, ptr, ptr, i64, ptr, ptr, ptr, ptr, ptr }
%struct.MatchArg = type { ptr, i32, i32, ptr, i32, ptr, i32, i64, i64, i64, ptr, i32, ptr, i64, ptr }
%struct.CalloutData = type { i32, [5 x %struct.anon] }
%struct.anon = type { i32, %union.OnigValue }
%union.OnigValue = type { %struct.anon.0 }
%struct.anon.0 = type { ptr, ptr }

; Function Attrs: nounwind uwtable
define dso_local i32 @onig_get_callout_data(ptr noundef %0, ptr noundef %1, i32 noundef %2, i32 noundef %3, ptr noundef %4, ptr noundef %5) #0 {
  %7 = alloca i32, align 4
  %8 = alloca ptr, align 8
  %9 = alloca ptr, align 8
  %10 = alloca i32, align 4
  %11 = alloca i32, align 4
  %12 = alloca ptr, align 8
  %13 = alloca ptr, align 8
  %14 = alloca i32, align 4
  %15 = alloca ptr, align 8
  %16 = alloca i32, align 4
  store ptr %0, ptr %8, align 8, !tbaa !57
  store ptr %1, ptr %9, align 8, !tbaa !4
  store i32 %2, ptr %10, align 4, !tbaa !9
  store i32 %3, ptr %11, align 4, !tbaa !9
  store ptr %4, ptr %12, align 8, !tbaa !17
  store ptr %5, ptr %13, align 8, !tbaa !17
  call void @llvm.lifetime.start.p0(i64 4, ptr %14) #9
  call void @llvm.lifetime.start.p0(i64 8, ptr %15) #9
  %17 = load i32, ptr %10, align 4, !tbaa !9
  %18 = icmp sle i32 %17, 0
  br i1 %18, label %19, label %20

19:                                               ; preds = %6
  store i32 -30, ptr %7, align 4
  store i32 1, ptr %16, align 4
  br label %70

20:                                               ; preds = %6
  %21 = load ptr, ptr %9, align 8, !tbaa !4
  %22 = getelementptr inbounds nuw %struct.OnigMatchParamStruct, ptr %21, i32 0, i32 7
  %23 = load ptr, ptr %22, align 8, !tbaa !43
  %24 = load i32, ptr %10, align 4, !tbaa !9
  %25 = sub nsw i32 %24, 1
  %26 = sext i32 %25 to i64
  %27 = getelementptr inbounds %struct.CalloutData, ptr %23, i64 %26
  store ptr %27, ptr %15, align 8, !tbaa !17
  %28 = load ptr, ptr %15, align 8, !tbaa !17
  %29 = getelementptr inbounds nuw %struct.CalloutData, ptr %28, i32 0, i32 0
  %30 = load i32, ptr %29, align 8, !tbaa !55
  %31 = load ptr, ptr %9, align 8, !tbaa !4
  %32 = getelementptr inbounds nuw %struct.OnigMatchParamStruct, ptr %31, i32 0, i32 6
  %33 = load i32, ptr %32, align 8, !tbaa !42
  %34 = icmp ne i32 %30, %33
  br i1 %34, label %35, label %42

35:                                               ; preds = %20
  %36 = load ptr, ptr %15, align 8, !tbaa !17
  call void @llvm.memset.p0.i64(ptr align 8 %36, i8 0, i64 128, i1 false)
  %37 = load ptr, ptr %9, align 8, !tbaa !4
  %38 = getelementptr inbounds nuw %struct.OnigMatchParamStruct, ptr %37, i32 0, i32 6
  %39 = load i32, ptr %38, align 8, !tbaa !42
  %40 = load ptr, ptr %15, align 8, !tbaa !17
  %41 = getelementptr inbounds nuw %struct.CalloutData, ptr %40, i32 0, i32 0
  store i32 %39, ptr %41, align 8, !tbaa !55
  br label %42

42:                                               ; preds = %35, %20
  %43 = load ptr, ptr %15, align 8, !tbaa !17
  %44 = getelementptr inbounds nuw %struct.CalloutData, ptr %43, i32 0, i32 1
  %45 = load i32, ptr %11, align 4, !tbaa !9
  %46 = sext i32 %45 to i64
  %47 = getelementptr inbounds [5 x %struct.anon], ptr %44, i64 0, i64 %46
  %48 = getelementptr inbounds nuw %struct.anon, ptr %47, i32 0, i32 0
  %49 = load i32, ptr %48, align 8, !tbaa !55
  store i32 %49, ptr %14, align 4, !tbaa !9
  %50 = load ptr, ptr %12, align 8, !tbaa !17
  %51 = icmp ne ptr %50, null
  br i1 %51, label %52, label %55

52:                                               ; preds = %42
  %53 = load i32, ptr %14, align 4, !tbaa !9
  %54 = load ptr, ptr %12, align 8, !tbaa !17
  store i32 %53, ptr %54, align 4, !tbaa !9
  br label %55

55:                                               ; preds = %52, %42
  %56 = load ptr, ptr %13, align 8, !tbaa !17
  %57 = icmp ne ptr %56, null
  br i1 %57, label %58, label %66

58:                                               ; preds = %55
  %59 = load ptr, ptr %13, align 8, !tbaa !17
  %60 = load ptr, ptr %15, align 8, !tbaa !17
  %61 = getelementptr inbounds nuw %struct.CalloutData, ptr %60, i32 0, i32 1
  %62 = load i32, ptr %11, align 4, !tbaa !9
  %63 = sext i32 %62 to i64
  %64 = getelementptr inbounds [5 x %struct.anon], ptr %61, i64 0, i64 %63
  %65 = getelementptr inbounds nuw %struct.anon, ptr %64, i32 0, i32 1
  call void @llvm.memcpy.p0.p0.i64(ptr align 8 %59, ptr align 8 %65, i64 16, i1 false), !tbaa.struct !58
  br label %66

66:                                               ; preds = %58, %55
  %67 = load i32, ptr %14, align 4, !tbaa !9
  %68 = icmp eq i32 %67, 0
  %69 = select i1 %68, i32 1, i32 0
  store i32 %69, ptr %7, align 4
  store i32 1, ptr %16, align 4
  br label %70

70:                                               ; preds = %66, %19
  call void @llvm.lifetime.end.p0(i64 8, ptr %15) #9
  call void @llvm.lifetime.end.p0(i64 4, ptr %14) #9
  %71 = load i32, ptr %7, align 4
  ret i32 %71
}

; Function Attrs: nounwind uwtable
define dso_local i32 @onig_get_callout_data_by_callout_args(ptr noundef %0, i32 noundef %1, i32 noundef %2, ptr noundef %3, ptr noundef %4) #0 {
  %6 = alloca ptr, align 8
  %7 = alloca i32, align 4
  %8 = alloca i32, align 4
  %9 = alloca ptr, align 8
  %10 = alloca ptr, align 8
  store ptr %0, ptr %6, align 8, !tbaa !45
  store i32 %1, ptr %7, align 4, !tbaa !9
  store i32 %2, ptr %8, align 4, !tbaa !9
  store ptr %3, ptr %9, align 8, !tbaa !17
  store ptr %4, ptr %10, align 8, !tbaa !17
  %11 = load ptr, ptr %6, align 8, !tbaa !45
  %12 = getelementptr inbounds nuw %struct.OnigCalloutArgsStruct, ptr %11, i32 0, i32 3
  %13 = load ptr, ptr %12, align 8, !tbaa !61
  %14 = load ptr, ptr %6, align 8, !tbaa !45
  %15 = getelementptr inbounds nuw %struct.OnigCalloutArgsStruct, ptr %14, i32 0, i32 10
  %16 = load ptr, ptr %15, align 8, !tbaa !47
  %17 = getelementptr inbounds nuw %struct.MatchArg, ptr %16, i32 0, i32 10
  %18 = load ptr, ptr %17, align 8, !tbaa !52
  %19 = load i32, ptr %7, align 4, !tbaa !9
  %20 = load i32, ptr %8, align 4, !tbaa !9
  %21 = load ptr, ptr %9, align 8, !tbaa !17
  %22 = load ptr, ptr %10, align 8, !tbaa !17
  %23 = call i32 @onig_get_callout_data(ptr noundef %13, ptr noundef %18, i32 noundef %19, i32 noundef %20, ptr noundef %21, ptr noundef %22)
  ret i32 %23
}